target datalayout = "e-m:e-p270:32:32-p271:32:32-p272:64:64-i64:64-i128:128-f80:128-n8:16:32:64-S128"
target triple = "x86_64-pc-linux-gnu"

@.str.3 = private unnamed_addr constant [12 x i8] c"bitstring.c\00", align 1
@__func__.bitstr2inx = private unnamed_addr constant [11 x i8] c"bitstr2inx\00", align 1

; Function Attrs: nounwind uwtable
define dso_local ptr @bitstr2inx(ptr noundef %0) #0 {
  %2 = alloca ptr, align 8
  %3 = alloca ptr, align 8
  %4 = alloca i64, align 8
  %5 = alloca i64, align 8
  %6 = alloca i64, align 8
  %7 = alloca ptr, align 8
  %8 = alloca i32, align 4
  store ptr %0, ptr %3, align 8
  call void @llvm.lifetime.start.p0(i64 8, ptr %4) #12
  call void @llvm.lifetime.start.p0(i64 8, ptr %5) #12
  call void @llvm.lifetime.start.p0(i64 8, ptr %6) #12
  store i64 0, ptr %6, align 8
  call void @llvm.lifetime.start.p0(i64 8, ptr %7) #12
  %9 = load ptr, ptr %3, align 8
  %10 = icmp ne ptr %9, null
  br i1 %10, label %16, label %11

11:                                               ; preds = %1
  %12 = call ptr @slurm_xcalloc(i64 noundef 1, i64 noundef 4, i1 noundef zeroext true, i1 noundef zeroext false, ptr noundef @.str.3, i32 noundef 1627, ptr noundef @__func__.bitstr2inx)
  store ptr %12, ptr %7, align 8
  %13 = load ptr, ptr %7, align 8
  %14 = getelementptr inbounds i32, ptr %13, i64 0
  store i32 -1, ptr %14, align 4
  %15 = load ptr, ptr %7, align 8
  store ptr %15, ptr %2, align 8
  store i32 1, ptr %8, align 4
  br label %105

16:                                               ; preds = %1
  %17 = load ptr, ptr %3, align 8
  %18 = getelementptr inbounds i64, ptr %17, i64 1
  %19 = load i64, ptr %18, align 8
  %20 = add nsw i64 %19, 2
  %21 = mul i64 4, %20
  %22 = call ptr @slurm_xcalloc(i64 noundef 1, i64 noundef %21, i1 noundef zeroext false, i1 noundef zeroext false, ptr noundef @.str.3, i32 noundef 1635, ptr noundef @__func__.bitstr2inx)
  store ptr %22, ptr %7, align 8
  store i64 0, ptr %5, align 8
  br label %23

23:                                               ; preds = %97, %37, %16
  %24 = load i64, ptr %5, align 8
  %25 = load ptr, ptr %3, align 8
  %26 = getelementptr inbounds i64, ptr %25, i64 1
  %27 = load i64, ptr %26, align 8
  %28 = icmp slt i64 %24, %27
  br i1 %28, label %29, label %100

29:                                               ; preds = %23
  %30 = load ptr, ptr %3, align 8
  %31 = load i64, ptr %5, align 8
  %32 = ashr i64 %31, 6
  %33 = add nsw i64 %32, 2
  %34 = getelementptr inbounds i64, ptr %30, i64 %33
  %35 = load i64, ptr %34, align 8
  %36 = icmp ne i64 %35, 0
  br i1 %36, label %40, label %37

37:                                               ; preds = %29
  %38 = load i64, ptr %5, align 8
  %39 = add i64 %38, 64
  store i64 %39, ptr %5, align 8
  br label %23, !llvm.loop !54

40:                                               ; preds = %29
  %41 = load ptr, ptr %3, align 8
  %42 = load i64, ptr %5, align 8
  %43 = ashr i64 %42, 6
  %44 = add nsw i64 %43, 2
  %45 = getelementptr inbounds i64, ptr %41, i64 %44
  %46 = load i64, ptr %45, align 8
  %47 = load i64, ptr %5, align 8
  %48 = and i64 %47, 63
  %49 = shl i64 1, %48
  %50 = and i64 %46, %49
  %51 = icmp ne i64 %50, 0
  br i1 %51, label %52, label %53

52:                                               ; preds = %40
  br i1 true, label %54, label %97

53:                                               ; preds = %40
  br i1 false, label %54, label %97

54:                                               ; preds = %53, %52
  %55 = load i64, ptr %5, align 8
  store i64 %55, ptr %4, align 8
  br label %56

56:                                               ; preds = %81, %54
  %57 = load i64, ptr %5, align 8
  %58 = add nsw i64 %57, 1
  %59 = load ptr, ptr %3, align 8
  %60 = getelementptr inbounds i64, ptr %59, i64 1
  %61 = load i64, ptr %60, align 8
  %62 = icmp slt i64 %58, %61
  br i1 %62, label %63, label %79

63:                                               ; preds = %56
  %64 = load ptr, ptr %3, align 8
  %65 = load i64, ptr %5, align 8
  %66 = add nsw i64 %65, 1
  %67 = ashr i64 %66, 6
  %68 = add nsw i64 %67, 2
  %69 = getelementptr inbounds i64, ptr %64, i64 %68
  %70 = load i64, ptr %69, align 8
  %71 = load i64, ptr %5, align 8
  %72 = add nsw i64 %71, 1
  %73 = and i64 %72, 63
  %74 = shl i64 1, %73
  %75 = and i64 %70, %74
  %76 = icmp ne i64 %75, 0
  %77 = select i1 %76, i32 1, i32 0
  %78 = icmp ne i32 %77, 0
  br label %79

79:                                               ; preds = %63, %56
  %80 = phi i1 [ false, %56 ], [ %78, %63 ]
  br i1 %80, label %81, label %84

81:                                               ; preds = %79
  %82 = load i64, ptr %5, align 8
  %83 = add nsw i64 %82, 1
  store i64 %83, ptr %5, align 8
  br label %56, !llvm.loop !55

84:                                               ; preds = %79
  %85 = load i64, ptr %4, align 8
  %86 = trunc i64 %85 to i32
  %87 = load ptr, ptr %7, align 8
  %88 = load i64, ptr %6, align 8
  %89 = add nsw i64 %88, 1
  store i64 %89, ptr %6, align 8
  %90 = getelementptr inbounds i32, ptr %87, i64 %88
  store i32 %86, ptr %90, align 4
  %91 = load i64, ptr %5, align 8
  %92 = trunc i64 %91 to i32
  %93 = load ptr, ptr %7, align 8
  %94 = load i64, ptr %6, align 8
  %95 = add nsw i64 %94, 1
  store i64 %95, ptr %6, align 8
  %96 = getelementptr inbounds i32, ptr %93, i64 %94
  store i32 %92, ptr %96, align 4
  br label %97

97:                                               ; preds = %84, %53, %52
  %98 = load i64, ptr %5, align 8
  %99 = add nsw i64 %98, 1
  store i64 %99, ptr %5, align 8
  br label %23, !llvm.loop !54

100:                                              ; preds = %23
  %101 = load ptr, ptr %7, align 8
  %102 = load i64, ptr %6, align 8
  %103 = getelementptr inbounds i32, ptr %101, i64 %102
  store i32 -1, ptr %103, align 4
  %104 = load ptr, ptr %7, align 8
  store ptr %104, ptr %2, align 8
  store i32 1, ptr %8, align 4
  br label %105

105:                                              ; preds = %100, %11
  call void @llvm.lifetime.end.p0(i64 8, ptr %7) #12
  call void @llvm.lifetime.end.p0(i64 8, ptr %6) #12
  call void @llvm.lifetime.end.p0(i64 8, ptr %5) #12
  call void @llvm.lifetime.end.p0(i64 8, ptr %4) #12
  %106 = load ptr, ptr %2, align 8
  ret ptr %106
}