; Function Attrs: nounwind uwtable
define dso_local ptr @bitstr2inx(ptr noundef readonly captures(address_is_null) %0) local_unnamed_addr #0 {
  %.not = icmp eq ptr %0, null
  br i1 %.not, label %2, label %4

2:                                                ; preds = %1
  %3 = tail call ptr @slurm_xcalloc(i64 noundef 1, i64 noundef 4, i1 noundef zeroext true, i1 noundef zeroext false, ptr noundef nonnull @.str.3, i32 noundef 1627, ptr noundef nonnull @__func__.bitstr2inx) #17
  store i32 -1, ptr %3, align 4
  br label %39

4:                                                ; preds = %1
  %5 = getelementptr inbounds nuw i8, ptr %0, i64 8
  %6 = load i64, ptr %5, align 8
  %7 = shl i64 %6, 2
  %8 = add i64 %7, 8
  %9 = tail call ptr @slurm_xcalloc(i64 noundef 1, i64 noundef %8, i1 noundef zeroext false, i1 noundef zeroext false, ptr noundef nonnull @.str.3, i32 noundef 1635, ptr noundef nonnull @__func__.bitstr2inx) #17
  %invariant.gep = getelementptr i8, ptr %0, i64 16
  %10 = load i64, ptr %5, align 8
  %11 = icmp sgt i64 %10, 0
  br i1 %11, label %.lr.ph, label %.outer._crit_edge

.lr.ph:                                           ; preds = %4, %.outer
  %12 = phi i64 [ %36, %.outer ], [ %10, %4 ]
  %.0.ph46 = phi i64 [ %.1, %.outer ], [ 0, %4 ]
  %.029.ph45 = phi i64 [ %.pre-phi, %.outer ], [ 0, %4 ]
  br label %13

13:                                               ; preds = %.lr.ph, %16
  %.02941 = phi i64 [ %.029.ph45, %.lr.ph ], [ %17, %16 ]
  %14 = ashr i64 %.02941, 6
  %gep = getelementptr i64, ptr %invariant.gep, i64 %14
  %15 = load i64, ptr %gep, align 8
  %.not35 = icmp eq i64 %15, 0
  br i1 %.not35, label %16, label %19

16:                                               ; preds = %13
  %17 = add i64 %.02941, 64
  %18 = icmp slt i64 %17, %12
  br i1 %18, label %13, label %.outer._crit_edge, !llvm.loop !52

19:                                               ; preds = %13
  %20 = and i64 %.02941, 63
  %21 = shl nuw i64 1, %20
  %22 = and i64 %15, %21
  %.not36 = icmp eq i64 %22, 0
  br i1 %.not36, label %..outer_crit_edge, label %.preheader

..outer_crit_edge:                                ; preds = %19
  %.pre52 = add nsw i64 %.02941, 1
  br label %.outer

.preheader:                                       ; preds = %19, %25
  %.2 = phi i64 [ %23, %25 ], [ %.02941, %19 ]
  %23 = add nsw i64 %.2, 1
  %24 = icmp slt i64 %23, %12
  br i1 %24, label %25, label %.critedge

25:                                               ; preds = %.preheader
  %26 = ashr i64 %23, 6
  %gep44 = getelementptr i64, ptr %invariant.gep, i64 %26
  %27 = load i64, ptr %gep44, align 8
  %28 = and i64 %23, 63
  %29 = shl nuw i64 1, %28
  %30 = and i64 %27, %29
  %.not37 = icmp eq i64 %30, 0
  br i1 %.not37, label %.critedge, label %.preheader, !llvm.loop !53

.critedge:                                        ; preds = %.preheader, %25
  %31 = trunc i64 %.02941 to i32
  %32 = getelementptr inbounds i32, ptr %9, i64 %.0.ph46
  store i32 %31, ptr %32, align 4
  %33 = trunc i64 %.2 to i32
  %34 = add nsw i64 %.0.ph46, 2
  %35 = getelementptr i8, ptr %32, i64 4
  store i32 %33, ptr %35, align 4
  %.pre = load i64, ptr %5, align 8
  br label %.outer

.outer:                                           ; preds = %..outer_crit_edge, %.critedge
  %.pre-phi = phi i64 [ %.pre52, %..outer_crit_edge ], [ %23, %.critedge ]
  %36 = phi i64 [ %12, %..outer_crit_edge ], [ %.pre, %.critedge ]
  %.1 = phi i64 [ %.0.ph46, %..outer_crit_edge ], [ %34, %.critedge ]
  %37 = icmp slt i64 %.pre-phi, %36
  br i1 %37, label %.lr.ph, label %.outer._crit_edge, !llvm.loop !52

.outer._crit_edge:                                ; preds = %.outer, %16, %4
  %.0.ph.lcssa = phi i64 [ 0, %4 ], [ %.0.ph46, %16 ], [ %.1, %.outer ]
  %38 = getelementptr inbounds i32, ptr %9, i64 %.0.ph.lcssa
  store i32 -1, ptr %38, align 4
  br label %39

39:                                               ; preds = %.outer._crit_edge, %2
  %.031 = phi ptr [ %9, %.outer._crit_edge ], [ %3, %2 ]
  ret ptr %.031
}